	.arch armv8-a
	.file	"bounds.c"
// GNU C89 (Ubuntu/Linaro 7.5.0-3ubuntu1~18.04) version 7.5.0 (aarch64-linux-gnu)
//	compiled by GNU C version 7.5.0, GMP version 6.1.2, MPFR version 4.0.1, MPC version 1.1.0, isl version isl-0.19-GMP

// GGC heuristics: --param ggc-min-expand=100 --param ggc-min-heapsize=131072
// options passed:  -nostdinc -I ./arch/arm64/include
// -I ./arch/arm64/include/generated/uapi -I ./arch/arm64/include/generated
// -I ./include -I ./arch/arm64/include/uapi -I ./include/uapi
// -I ./include/generated/uapi
// -I /home/tejas/Desktop/Linux_4_Tegra/Linux_for_Tegra/source/public/kernel/nvidia/include
// -I /home/tejas/Desktop/Linux_4_Tegra/Linux_for_Tegra/source/public/kernel/nvgpu/include
// -I /home/tejas/Desktop/Linux_4_Tegra/Linux_for_Tegra/source/public/kernel/nvgpu-next/include
// -I /home/tejas/Desktop/Linux_4_Tegra/Linux_for_Tegra/source/public/kernel/nvidia-t23x/include
// -imultiarch aarch64-linux-gnu -D __KERNEL__ -D CONFIG_AS_LSE=1
// -D CC_HAVE_ASM_GOTO -D KBUILD_BASENAME="bounds"
// -D KBUILD_MODNAME="bounds"
// -isystem /usr/lib/gcc/aarch64-linux-gnu/7/include
// -include ./include/linux/kconfig.h -MD kernel/.bounds.s.d
// kernel/bounds.c -mlittle-endian -mgeneral-regs-only
// -mpc-relative-literal-loads -mabi=lp64 -auxbase-strip kernel/bounds.s -g
// -O2 -Wall -Wundef -Wstrict-prototypes -Wno-trigraphs
// -Werror=implicit-function-declaration -Wno-format-security
// -Wno-frame-address -Wformat-truncation=0 -Wformat-overflow=0
// -Wno-int-in-bool-context -Wframe-larger-than=2048
// -Wno-unused-but-set-variable -Wunused-const-variable=0
// -Wdeclaration-after-statement -Wno-pointer-sign -Wno-array-bounds
// -Wstringop-overflow=0 -Wno-restrict -Wno-maybe-uninitialized
// -Werror=implicit-int -Werror=strict-prototypes -Werror=date-time
// -Werror=incompatible-pointer-types -Werror=designated-init -std=gnu90 -p
// -fno-strict-aliasing -fno-common -fshort-wchar
// -fno-asynchronous-unwind-tables -fno-pic -fno-delete-null-pointer-checks
// -fno-stack-protector -fno-omit-frame-pointer -fno-optimize-sibling-calls
// -fno-var-tracking-assignments -fno-inline-functions-called-once
// -fno-strict-overflow -fno-merge-all-constants -fmerge-constants
// -fstack-check=no -fconserve-stack -fverbose-asm
// --param allow-store-data-races=0
// options enabled:  -faggressive-loop-optimizations -falign-labels
// -fauto-inc-dec -fbranch-count-reg -fcaller-saves
// -fchkp-check-incomplete-type -fchkp-check-read -fchkp-check-write
// -fchkp-instrument-calls -fchkp-narrow-bounds -fchkp-optimize
// -fchkp-store-bounds -fchkp-use-static-bounds
// -fchkp-use-static-const-bounds -fchkp-use-wrappers -fcode-hoisting
// -fcombine-stack-adjustments -fcompare-elim -fcprop-registers
// -fcrossjumping -fcse-follow-jumps -fdefer-pop -fdevirtualize
// -fdevirtualize-speculatively -fdwarf2-cfi-asm -fearly-inlining
// -feliminate-unused-debug-types -fexpensive-optimizations
// -fforward-propagate -ffp-int-builtin-inexact -ffunction-cse -fgcse
// -fgcse-lm -fgnu-runtime -fgnu-unique -fguess-branch-probability
// -fhoist-adjacent-loads -fident -fif-conversion -fif-conversion2
// -findirect-inlining -finline -finline-atomics -finline-small-functions
// -fipa-bit-cp -fipa-cp -fipa-icf -fipa-icf-functions -fipa-icf-variables
// -fipa-profile -fipa-pure-const -fipa-reference -fipa-sra -fipa-vrp
// -fira-hoist-pressure -fira-share-save-slots -fira-share-spill-slots
// -fisolate-erroneous-paths-dereference -fivopts -fkeep-static-consts
// -fleading-underscore -flifetime-dse -flra-remat -flto-odr-type-merging
// -fmath-errno -fmerge-constants -fmerge-debug-strings
// -fmove-loop-invariants -fomit-frame-pointer -foptimize-strlen
// -fpartial-inlining -fpeephole -fpeephole2 -fplt -fprefetch-loop-arrays
// -fprofile -free -freg-struct-return -freorder-blocks -freorder-functions
// -frerun-cse-after-loop -fsched-critical-path-heuristic
// -fsched-dep-count-heuristic -fsched-group-heuristic -fsched-interblock
// -fsched-last-insn-heuristic -fsched-pressure -fsched-rank-heuristic
// -fsched-spec -fsched-spec-insn-heuristic -fsched-stalled-insns-dep
// -fschedule-fusion -fschedule-insns -fschedule-insns2 -fsection-anchors
// -fsemantic-interposition -fshow-column -fshrink-wrap
// -fshrink-wrap-separate -fsigned-zeros -fsplit-ivs-in-unroller
// -fsplit-wide-types -fssa-backprop -fssa-phiopt -fstdarg-opt
// -fstore-merging -fstrict-volatile-bitfields -fsync-libcalls
// -fthread-jumps -ftoplevel-reorder -ftrapping-math -ftree-bit-ccp
// -ftree-builtin-call-dce -ftree-ccp -ftree-ch -ftree-coalesce-vars
// -ftree-copy-prop -ftree-cselim -ftree-dce -ftree-dominator-opts
// -ftree-dse -ftree-forwprop -ftree-fre -ftree-loop-if-convert
// -ftree-loop-im -ftree-loop-ivcanon -ftree-loop-optimize
// -ftree-parallelize-loops= -ftree-phiprop -ftree-pre -ftree-pta
// -ftree-reassoc -ftree-scev-cprop -ftree-sink -ftree-slsr -ftree-sra
// -ftree-switch-conversion -ftree-tail-merge -ftree-ter -ftree-vrp
// -funit-at-a-time -fvar-tracking -fverbose-asm -fzero-initialized-in-bss
// -mfix-cortex-a53-835769 -mfix-cortex-a53-843419 -mgeneral-regs-only
// -mglibc -mlittle-endian -momit-leaf-frame-pointer
// -mpc-relative-literal-loads

	.text
.Ltext0:
	.cfi_sections	.debug_frame
	.global	_mcount
	.section	.text.startup,"ax",@progbits
	.align	2
	.p2align 3,,7
	.global	main
	.type	main, %function
main:
.LFB278:
	.file 1 "kernel/bounds.c"
	.loc 1 16 0
	.cfi_startproc
	stp	x29, x30, [sp, -16]!	//,,,
	.cfi_def_cfa_offset 16
	.cfi_offset 29, -16
	.cfi_offset 30, -8
	add	x29, sp, 0	//,,
	.cfi_def_cfa_register 29
// kernel/bounds.c:16: {
	.loc 1 16 0
	mov	x0, x30	//,
	bl	_mcount	//
.LVL0:
// kernel/bounds.c:18: 	DEFINE(NR_PAGEFLAGS, __NR_PAGEFLAGS);
	.loc 1 18 0
#APP
// 18 "kernel/bounds.c" 1
	
.ascii "->NR_PAGEFLAGS 23 __NR_PAGEFLAGS"	//
// 0 "" 2
// kernel/bounds.c:19: 	DEFINE(MAX_NR_ZONES, __MAX_NR_ZONES);
	.loc 1 19 0
// 19 "kernel/bounds.c" 1
	
.ascii "->MAX_NR_ZONES 4 __MAX_NR_ZONES"	//
// 0 "" 2
// kernel/bounds.c:21: 	DEFINE(NR_CPUS_BITS, ilog2(CONFIG_NR_CPUS));
	.loc 1 21 0
// 21 "kernel/bounds.c" 1
	
.ascii "->NR_CPUS_BITS 6 ilog2(CONFIG_NR_CPUS)"	//
// 0 "" 2
// kernel/bounds.c:23: 	DEFINE(SPINLOCK_SIZE, sizeof(spinlock_t));
	.loc 1 23 0
// 23 "kernel/bounds.c" 1
	
.ascii "->SPINLOCK_SIZE 4 sizeof(spinlock_t)"	//
// 0 "" 2
// kernel/bounds.c:27: }
	.loc 1 27 0
#NO_APP
	mov	w0, 0	//,
	ldp	x29, x30, [sp], 16	//,,,
	.cfi_restore 30
	.cfi_restore 29
	.cfi_def_cfa 31, 0
	ret
	.cfi_endproc
.LFE278:
	.size	main, .-main
	.text
.Letext0:
	.file 2 "./include/linux/types.h"
	.file 3 "./include/linux/init.h"
	.file 4 "./arch/arm64/include/asm/cachetype.h"
	.file 5 "./include/linux/printk.h"
	.file 6 "./include/linux/jump_label.h"
	.file 7 "./arch/arm64/include/asm/jump_label.h"
	.file 8 "./arch/arm64/include/asm/insn.h"
	.file 9 "./include/linux/kernel.h"
	.file 10 "./include/linux/page-flags.h"
	.file 11 "./include/linux/mmzone.h"
	.file 12 "./include/linux/lockdep.h"
	.file 13 "./include/asm-generic/int-ll64.h"
	.section	.note.GNU-stack,"",@progbits
