	.arch armv8-a
	.file	"asm-offsets.c"
// GNU C89 (Ubuntu/Linaro 7.5.0-3ubuntu1~18.04) version 7.5.0 (aarch64-linux-gnu)
//	compiled by GNU C version 7.5.0, GMP version 6.1.2, MPFR version 4.0.1, MPC version 1.1.0, isl version isl-0.19-GMP

// GGC heuristics: --param ggc-min-expand=100 --param ggc-min-heapsize=131072
// options passed:  -nostdinc -I ./arch/arm64/include
// -I ./arch/arm64/include/generated/uapi -I ./arch/arm64/include/generated
// -I ./include -I ./arch/arm64/include/uapi -I ./include/uapi
// -I ./include/generated/uapi
// -I /home/tejas/Desktop/Linux_4_Tegra/Linux_for_Tegra/source/public/kernel/nvidia/include
// -I /home/tejas/Desktop/Linux_4_Tegra/Linux_for_Tegra/source/public/kernel/nvgpu/include
// -I /home/tejas/Desktop/Linux_4_Tegra/Linux_for_Tegra/source/public/kernel/nvgpu-next/include
// -I /home/tejas/Desktop/Linux_4_Tegra/Linux_for_Tegra/source/public/kernel/nvidia-t23x/include
// -imultiarch aarch64-linux-gnu -D __KERNEL__ -D CONFIG_AS_LSE=1
// -D CC_HAVE_ASM_GOTO -D KBUILD_BASENAME="asm_offsets"
// -D KBUILD_MODNAME="asm_offsets"
// -isystem /usr/lib/gcc/aarch64-linux-gnu/7/include
// -include ./include/linux/kconfig.h
// -MD arch/arm64/kernel/.asm-offsets.s.d arch/arm64/kernel/asm-offsets.c
// -mlittle-endian -mgeneral-regs-only -mpc-relative-literal-loads
// -mabi=lp64 -auxbase-strip arch/arm64/kernel/asm-offsets.s -g -O2 -Wall
// -Wundef -Wstrict-prototypes -Wno-trigraphs
// -Werror=implicit-function-declaration -Wno-format-security
// -Wno-frame-address -Wformat-truncation=0 -Wformat-overflow=0
// -Wno-int-in-bool-context -Wframe-larger-than=2048
// -Wno-unused-but-set-variable -Wunused-const-variable=0
// -Wdeclaration-after-statement -Wno-pointer-sign -Wno-array-bounds
// -Wstringop-overflow=0 -Wno-restrict -Wno-maybe-uninitialized
// -Werror=implicit-int -Werror=strict-prototypes -Werror=date-time
// -Werror=incompatible-pointer-types -Werror=designated-init -std=gnu90 -p
// -fno-strict-aliasing -fno-common -fshort-wchar
// -fno-asynchronous-unwind-tables -fno-pic -fno-delete-null-pointer-checks
// -fno-stack-protector -fno-omit-frame-pointer -fno-optimize-sibling-calls
// -fno-var-tracking-assignments -fno-inline-functions-called-once
// -fno-strict-overflow -fno-merge-all-constants -fmerge-constants
// -fstack-check=no -fconserve-stack -fverbose-asm
// --param allow-store-data-races=0
// options enabled:  -faggressive-loop-optimizations -falign-labels
// -fauto-inc-dec -fbranch-count-reg -fcaller-saves
// -fchkp-check-incomplete-type -fchkp-check-read -fchkp-check-write
// -fchkp-instrument-calls -fchkp-narrow-bounds -fchkp-optimize
// -fchkp-store-bounds -fchkp-use-static-bounds
// -fchkp-use-static-const-bounds -fchkp-use-wrappers -fcode-hoisting
// -fcombine-stack-adjustments -fcompare-elim -fcprop-registers
// -fcrossjumping -fcse-follow-jumps -fdefer-pop -fdevirtualize
// -fdevirtualize-speculatively -fdwarf2-cfi-asm -fearly-inlining
// -feliminate-unused-debug-types -fexpensive-optimizations
// -fforward-propagate -ffp-int-builtin-inexact -ffunction-cse -fgcse
// -fgcse-lm -fgnu-runtime -fgnu-unique -fguess-branch-probability
// -fhoist-adjacent-loads -fident -fif-conversion -fif-conversion2
// -findirect-inlining -finline -finline-atomics -finline-small-functions
// -fipa-bit-cp -fipa-cp -fipa-icf -fipa-icf-functions -fipa-icf-variables
// -fipa-profile -fipa-pure-const -fipa-reference -fipa-sra -fipa-vrp
// -fira-hoist-pressure -fira-share-save-slots -fira-share-spill-slots
// -fisolate-erroneous-paths-dereference -fivopts -fkeep-static-consts
// -fleading-underscore -flifetime-dse -flra-remat -flto-odr-type-merging
// -fmath-errno -fmerge-constants -fmerge-debug-strings
// -fmove-loop-invariants -fomit-frame-pointer -foptimize-strlen
// -fpartial-inlining -fpeephole -fpeephole2 -fplt -fprefetch-loop-arrays
// -fprofile -free -freg-struct-return -freorder-blocks -freorder-functions
// -frerun-cse-after-loop -fsched-critical-path-heuristic
// -fsched-dep-count-heuristic -fsched-group-heuristic -fsched-interblock
// -fsched-last-insn-heuristic -fsched-pressure -fsched-rank-heuristic
// -fsched-spec -fsched-spec-insn-heuristic -fsched-stalled-insns-dep
// -fschedule-fusion -fschedule-insns -fschedule-insns2 -fsection-anchors
// -fsemantic-interposition -fshow-column -fshrink-wrap
// -fshrink-wrap-separate -fsigned-zeros -fsplit-ivs-in-unroller
// -fsplit-wide-types -fssa-backprop -fssa-phiopt -fstdarg-opt
// -fstore-merging -fstrict-volatile-bitfields -fsync-libcalls
// -fthread-jumps -ftoplevel-reorder -ftrapping-math -ftree-bit-ccp
// -ftree-builtin-call-dce -ftree-ccp -ftree-ch -ftree-coalesce-vars
// -ftree-copy-prop -ftree-cselim -ftree-dce -ftree-dominator-opts
// -ftree-dse -ftree-forwprop -ftree-fre -ftree-loop-if-convert
// -ftree-loop-im -ftree-loop-ivcanon -ftree-loop-optimize
// -ftree-parallelize-loops= -ftree-phiprop -ftree-pre -ftree-pta
// -ftree-reassoc -ftree-scev-cprop -ftree-sink -ftree-slsr -ftree-sra
// -ftree-switch-conversion -ftree-tail-merge -ftree-ter -ftree-vrp
// -funit-at-a-time -fvar-tracking -fverbose-asm -fzero-initialized-in-bss
// -mfix-cortex-a53-835769 -mfix-cortex-a53-843419 -mgeneral-regs-only
// -mglibc -mlittle-endian -momit-leaf-frame-pointer
// -mpc-relative-literal-loads

	.text
.Ltext0:
	.cfi_sections	.debug_frame
#APP
	.arch_extension	lse
	.global	_mcount
#NO_APP
	.section	.text.startup,"ax",@progbits
	.align	2
	.p2align 3,,7
	.global	main
	.type	main, %function
main:
.LFB2952:
	.file 1 "arch/arm64/kernel/asm-offsets.c"
	.loc 1 37 0
	.cfi_startproc
	stp	x29, x30, [sp, -16]!	//,,,
	.cfi_def_cfa_offset 16
	.cfi_offset 29, -16
	.cfi_offset 30, -8
	add	x29, sp, 0	//,,
	.cfi_def_cfa_register 29
// arch/arm64/kernel/asm-offsets.c:37: {
	.loc 1 37 0
	mov	x0, x30	//,
	bl	_mcount	//
.LVL0:
// arch/arm64/kernel/asm-offsets.c:38:   DEFINE(TSK_ACTIVE_MM,		offsetof(struct task_struct, active_mm));
	.loc 1 38 0
#APP
// 38 "arch/arm64/kernel/asm-offsets.c" 1
	
.ascii "->TSK_ACTIVE_MM 1240 offsetof(struct task_struct, active_mm)"	//
// 0 "" 2
// arch/arm64/kernel/asm-offsets.c:39:   BLANK();
	.loc 1 39 0
// 39 "arch/arm64/kernel/asm-offsets.c" 1
	
.ascii "->"
// 0 "" 2
// arch/arm64/kernel/asm-offsets.c:40:   DEFINE(TSK_TI_FLAGS,		offsetof(struct task_struct, thread_info.flags));
	.loc 1 40 0
// 40 "arch/arm64/kernel/asm-offsets.c" 1
	
.ascii "->TSK_TI_FLAGS 0 offsetof(struct task_struct, thread_info.flags)"	//
// 0 "" 2
// arch/arm64/kernel/asm-offsets.c:41:   DEFINE(TSK_TI_PREEMPT,	offsetof(struct task_struct, thread_info.preempt_count));
	.loc 1 41 0
// 41 "arch/arm64/kernel/asm-offsets.c" 1
	
.ascii "->TSK_TI_PREEMPT 32 offsetof(struct task_struct, thread_info.preempt_count)"	//
// 0 "" 2
// arch/arm64/kernel/asm-offsets.c:42:   DEFINE(TSK_TI_ADDR_LIMIT,	offsetof(struct task_struct, thread_info.addr_limit));
	.loc 1 42 0
// 42 "arch/arm64/kernel/asm-offsets.c" 1
	
.ascii "->TSK_TI_ADDR_LIMIT 8 offsetof(struct task_struct, thread_info.addr_limit)"	//
// 0 "" 2
// arch/arm64/kernel/asm-offsets.c:44:   DEFINE(TSK_TI_TTBR0,		offsetof(struct task_struct, thread_info.ttbr0));
	.loc 1 44 0
// 44 "arch/arm64/kernel/asm-offsets.c" 1
	
.ascii "->TSK_TI_TTBR0 24 offsetof(struct task_struct, thread_info.ttbr0)"	//
// 0 "" 2
// arch/arm64/kernel/asm-offsets.c:46:   DEFINE(TSK_STACK,		offsetof(struct task_struct, stack));
	.loc 1 46 0
// 46 "arch/arm64/kernel/asm-offsets.c" 1
	
.ascii "->TSK_STACK 48 offsetof(struct task_struct, stack)"	//
// 0 "" 2
// arch/arm64/kernel/asm-offsets.c:47:   BLANK();
	.loc 1 47 0
// 47 "arch/arm64/kernel/asm-offsets.c" 1
	
.ascii "->"
// 0 "" 2
// arch/arm64/kernel/asm-offsets.c:48:   DEFINE(THREAD_CPU_CONTEXT,	offsetof(struct task_struct, thread.cpu_context));
	.loc 1 48 0
// 48 "arch/arm64/kernel/asm-offsets.c" 1
	
.ascii "->THREAD_CPU_CONTEXT 2624 offsetof(struct task_struct, thread.cpu_context)"	//
// 0 "" 2
// arch/arm64/kernel/asm-offsets.c:49:   BLANK();
	.loc 1 49 0
// 49 "arch/arm64/kernel/asm-offsets.c" 1
	
.ascii "->"
// 0 "" 2
// arch/arm64/kernel/asm-offsets.c:50:   DEFINE(S_X0,			offsetof(struct pt_regs, regs[0]));
	.loc 1 50 0
// 50 "arch/arm64/kernel/asm-offsets.c" 1
	
.ascii "->S_X0 0 offsetof(struct pt_regs, regs[0])"	//
// 0 "" 2
// arch/arm64/kernel/asm-offsets.c:51:   DEFINE(S_X1,			offsetof(struct pt_regs, regs[1]));
	.loc 1 51 0
// 51 "arch/arm64/kernel/asm-offsets.c" 1
	
.ascii "->S_X1 8 offsetof(struct pt_regs, regs[1])"	//
// 0 "" 2
// arch/arm64/kernel/asm-offsets.c:52:   DEFINE(S_X2,			offsetof(struct pt_regs, regs[2]));
	.loc 1 52 0
// 52 "arch/arm64/kernel/asm-offsets.c" 1
	
.ascii "->S_X2 16 offsetof(struct pt_regs, regs[2])"	//
// 0 "" 2
// arch/arm64/kernel/asm-offsets.c:53:   DEFINE(S_X3,			offsetof(struct pt_regs, regs[3]));
	.loc 1 53 0
// 53 "arch/arm64/kernel/asm-offsets.c" 1
	
.ascii "->S_X3 24 offsetof(struct pt_regs, regs[3])"	//
// 0 "" 2
// arch/arm64/kernel/asm-offsets.c:54:   DEFINE(S_X4,			offsetof(struct pt_regs, regs[4]));
	.loc 1 54 0
// 54 "arch/arm64/kernel/asm-offsets.c" 1
	
.ascii "->S_X4 32 offsetof(struct pt_regs, regs[4])"	//
// 0 "" 2
// arch/arm64/kernel/asm-offsets.c:55:   DEFINE(S_X5,			offsetof(struct pt_regs, regs[5]));
	.loc 1 55 0
// 55 "arch/arm64/kernel/asm-offsets.c" 1
	
.ascii "->S_X5 40 offsetof(struct pt_regs, regs[5])"	//
// 0 "" 2
// arch/arm64/kernel/asm-offsets.c:56:   DEFINE(S_X6,			offsetof(struct pt_regs, regs[6]));
	.loc 1 56 0
// 56 "arch/arm64/kernel/asm-offsets.c" 1
	
.ascii "->S_X6 48 offsetof(struct pt_regs, regs[6])"	//
// 0 "" 2
// arch/arm64/kernel/asm-offsets.c:57:   DEFINE(S_X7,			offsetof(struct pt_regs, regs[7]));
	.loc 1 57 0
// 57 "arch/arm64/kernel/asm-offsets.c" 1
	
.ascii "->S_X7 56 offsetof(struct pt_regs, regs[7])"	//
// 0 "" 2
// arch/arm64/kernel/asm-offsets.c:58:   DEFINE(S_X8,			offsetof(struct pt_regs, regs[8]));
	.loc 1 58 0
// 58 "arch/arm64/kernel/asm-offsets.c" 1
	
.ascii "->S_X8 64 offsetof(struct pt_regs, regs[8])"	//
// 0 "" 2
// arch/arm64/kernel/asm-offsets.c:59:   DEFINE(S_X10,			offsetof(struct pt_regs, regs[10]));
	.loc 1 59 0
// 59 "arch/arm64/kernel/asm-offsets.c" 1
	
.ascii "->S_X10 80 offsetof(struct pt_regs, regs[10])"	//
// 0 "" 2
// arch/arm64/kernel/asm-offsets.c:60:   DEFINE(S_X12,			offsetof(struct pt_regs, regs[12]));
	.loc 1 60 0
// 60 "arch/arm64/kernel/asm-offsets.c" 1
	
.ascii "->S_X12 96 offsetof(struct pt_regs, regs[12])"	//
// 0 "" 2
// arch/arm64/kernel/asm-offsets.c:61:   DEFINE(S_X14,			offsetof(struct pt_regs, regs[14]));
	.loc 1 61 0
// 61 "arch/arm64/kernel/asm-offsets.c" 1
	
.ascii "->S_X14 112 offsetof(struct pt_regs, regs[14])"	//
// 0 "" 2
// arch/arm64/kernel/asm-offsets.c:62:   DEFINE(S_X16,			offsetof(struct pt_regs, regs[16]));
	.loc 1 62 0
// 62 "arch/arm64/kernel/asm-offsets.c" 1
	
.ascii "->S_X16 128 offsetof(struct pt_regs, regs[16])"	//
// 0 "" 2
// arch/arm64/kernel/asm-offsets.c:63:   DEFINE(S_X18,			offsetof(struct pt_regs, regs[18]));
	.loc 1 63 0
// 63 "arch/arm64/kernel/asm-offsets.c" 1
	
.ascii "->S_X18 144 offsetof(struct pt_regs, regs[18])"	//
// 0 "" 2
// arch/arm64/kernel/asm-offsets.c:64:   DEFINE(S_X20,			offsetof(struct pt_regs, regs[20]));
	.loc 1 64 0
// 64 "arch/arm64/kernel/asm-offsets.c" 1
	
.ascii "->S_X20 160 offsetof(struct pt_regs, regs[20])"	//
// 0 "" 2
// arch/arm64/kernel/asm-offsets.c:65:   DEFINE(S_X22,			offsetof(struct pt_regs, regs[22]));
	.loc 1 65 0
// 65 "arch/arm64/kernel/asm-offsets.c" 1
	
.ascii "->S_X22 176 offsetof(struct pt_regs, regs[22])"	//
// 0 "" 2
// arch/arm64/kernel/asm-offsets.c:66:   DEFINE(S_X24,			offsetof(struct pt_regs, regs[24]));
	.loc 1 66 0
// 66 "arch/arm64/kernel/asm-offsets.c" 1
	
.ascii "->S_X24 192 offsetof(struct pt_regs, regs[24])"	//
// 0 "" 2
// arch/arm64/kernel/asm-offsets.c:67:   DEFINE(S_X26,			offsetof(struct pt_regs, regs[26]));
	.loc 1 67 0
// 67 "arch/arm64/kernel/asm-offsets.c" 1
	
.ascii "->S_X26 208 offsetof(struct pt_regs, regs[26])"	//
// 0 "" 2
// arch/arm64/kernel/asm-offsets.c:68:   DEFINE(S_X28,			offsetof(struct pt_regs, regs[28]));
	.loc 1 68 0
// 68 "arch/arm64/kernel/asm-offsets.c" 1
	
.ascii "->S_X28 224 offsetof(struct pt_regs, regs[28])"	//
// 0 "" 2
// arch/arm64/kernel/asm-offsets.c:69:   DEFINE(S_LR,			offsetof(struct pt_regs, regs[30]));
	.loc 1 69 0
// 69 "arch/arm64/kernel/asm-offsets.c" 1
	
.ascii "->S_LR 240 offsetof(struct pt_regs, regs[30])"	//
// 0 "" 2
// arch/arm64/kernel/asm-offsets.c:70:   DEFINE(S_SP,			offsetof(struct pt_regs, sp));
	.loc 1 70 0
// 70 "arch/arm64/kernel/asm-offsets.c" 1
	
.ascii "->S_SP 248 offsetof(struct pt_regs, sp)"	//
// 0 "" 2
// arch/arm64/kernel/asm-offsets.c:72:   DEFINE(S_COMPAT_SP,		offsetof(struct pt_regs, compat_sp));
	.loc 1 72 0
// 72 "arch/arm64/kernel/asm-offsets.c" 1
	
.ascii "->S_COMPAT_SP 104 offsetof(struct pt_regs, compat_sp)"	//
// 0 "" 2
// arch/arm64/kernel/asm-offsets.c:74:   DEFINE(S_PSTATE,		offsetof(struct pt_regs, pstate));
	.loc 1 74 0
// 74 "arch/arm64/kernel/asm-offsets.c" 1
	
.ascii "->S_PSTATE 264 offsetof(struct pt_regs, pstate)"	//
// 0 "" 2
// arch/arm64/kernel/asm-offsets.c:75:   DEFINE(S_PC,			offsetof(struct pt_regs, pc));
	.loc 1 75 0
// 75 "arch/arm64/kernel/asm-offsets.c" 1
	
.ascii "->S_PC 256 offsetof(struct pt_regs, pc)"	//
// 0 "" 2
// arch/arm64/kernel/asm-offsets.c:76:   DEFINE(S_ORIG_X0,		offsetof(struct pt_regs, orig_x0));
	.loc 1 76 0
// 76 "arch/arm64/kernel/asm-offsets.c" 1
	
.ascii "->S_ORIG_X0 272 offsetof(struct pt_regs, orig_x0)"	//
// 0 "" 2
// arch/arm64/kernel/asm-offsets.c:77:   DEFINE(S_SYSCALLNO,		offsetof(struct pt_regs, syscallno));
	.loc 1 77 0
// 77 "arch/arm64/kernel/asm-offsets.c" 1
	
.ascii "->S_SYSCALLNO 280 offsetof(struct pt_regs, syscallno)"	//
// 0 "" 2
// arch/arm64/kernel/asm-offsets.c:78:   DEFINE(S_ORIG_ADDR_LIMIT,	offsetof(struct pt_regs, orig_addr_limit));
	.loc 1 78 0
// 78 "arch/arm64/kernel/asm-offsets.c" 1
	
.ascii "->S_ORIG_ADDR_LIMIT 288 offsetof(struct pt_regs, orig_addr_limit)"	//
// 0 "" 2
// arch/arm64/kernel/asm-offsets.c:79:   DEFINE(S_FRAME_SIZE,		sizeof(struct pt_regs));
	.loc 1 79 0
// 79 "arch/arm64/kernel/asm-offsets.c" 1
	
.ascii "->S_FRAME_SIZE 304 sizeof(struct pt_regs)"	//
// 0 "" 2
// arch/arm64/kernel/asm-offsets.c:80:   BLANK();
	.loc 1 80 0
// 80 "arch/arm64/kernel/asm-offsets.c" 1
	
.ascii "->"
// 0 "" 2
// arch/arm64/kernel/asm-offsets.c:81:   DEFINE(MM_CONTEXT_ID,		offsetof(struct mm_struct, context.id.counter));
	.loc 1 81 0
// 81 "arch/arm64/kernel/asm-offsets.c" 1
	
.ascii "->MM_CONTEXT_ID 720 offsetof(struct mm_struct, context.id.counter)"	//
// 0 "" 2
// arch/arm64/kernel/asm-offsets.c:82:   BLANK();
	.loc 1 82 0
// 82 "arch/arm64/kernel/asm-offsets.c" 1
	
.ascii "->"
// 0 "" 2
// arch/arm64/kernel/asm-offsets.c:83:   DEFINE(VMA_VM_MM,		offsetof(struct vm_area_struct, vm_mm));
	.loc 1 83 0
// 83 "arch/arm64/kernel/asm-offsets.c" 1
	
.ascii "->VMA_VM_MM 64 offsetof(struct vm_area_struct, vm_mm)"	//
// 0 "" 2
// arch/arm64/kernel/asm-offsets.c:84:   DEFINE(VMA_VM_FLAGS,		offsetof(struct vm_area_struct, vm_flags));
	.loc 1 84 0
// 84 "arch/arm64/kernel/asm-offsets.c" 1
	
.ascii "->VMA_VM_FLAGS 80 offsetof(struct vm_area_struct, vm_flags)"	//
// 0 "" 2
// arch/arm64/kernel/asm-offsets.c:85:   BLANK();
	.loc 1 85 0
// 85 "arch/arm64/kernel/asm-offsets.c" 1
	
.ascii "->"
// 0 "" 2
// arch/arm64/kernel/asm-offsets.c:86:   DEFINE(VM_EXEC,	       	VM_EXEC);
	.loc 1 86 0
// 86 "arch/arm64/kernel/asm-offsets.c" 1
	
.ascii "->VM_EXEC 4 VM_EXEC"	//
// 0 "" 2
// arch/arm64/kernel/asm-offsets.c:87:   BLANK();
	.loc 1 87 0
// 87 "arch/arm64/kernel/asm-offsets.c" 1
	
.ascii "->"
// 0 "" 2
// arch/arm64/kernel/asm-offsets.c:88:   DEFINE(PAGE_SZ,	       	PAGE_SIZE);
	.loc 1 88 0
// 88 "arch/arm64/kernel/asm-offsets.c" 1
	
.ascii "->PAGE_SZ 4096 PAGE_SIZE"	//
// 0 "" 2
// arch/arm64/kernel/asm-offsets.c:89:   BLANK();
	.loc 1 89 0
// 89 "arch/arm64/kernel/asm-offsets.c" 1
	
.ascii "->"
// 0 "" 2
// arch/arm64/kernel/asm-offsets.c:90:   DEFINE(DMA_BIDIRECTIONAL,	DMA_BIDIRECTIONAL);
	.loc 1 90 0
// 90 "arch/arm64/kernel/asm-offsets.c" 1
	
.ascii "->DMA_BIDIRECTIONAL 0 DMA_BIDIRECTIONAL"	//
// 0 "" 2
// arch/arm64/kernel/asm-offsets.c:91:   DEFINE(DMA_TO_DEVICE,		DMA_TO_DEVICE);
	.loc 1 91 0
// 91 "arch/arm64/kernel/asm-offsets.c" 1
	
.ascii "->DMA_TO_DEVICE 1 DMA_TO_DEVICE"	//
// 0 "" 2
// arch/arm64/kernel/asm-offsets.c:92:   DEFINE(DMA_FROM_DEVICE,	DMA_FROM_DEVICE);
	.loc 1 92 0
// 92 "arch/arm64/kernel/asm-offsets.c" 1
	
.ascii "->DMA_FROM_DEVICE 2 DMA_FROM_DEVICE"	//
// 0 "" 2
// arch/arm64/kernel/asm-offsets.c:93:   BLANK();
	.loc 1 93 0
// 93 "arch/arm64/kernel/asm-offsets.c" 1
	
.ascii "->"
// 0 "" 2
// arch/arm64/kernel/asm-offsets.c:94:   DEFINE(CLOCK_REALTIME,	CLOCK_REALTIME);
	.loc 1 94 0
// 94 "arch/arm64/kernel/asm-offsets.c" 1
	
.ascii "->CLOCK_REALTIME 0 CLOCK_REALTIME"	//
// 0 "" 2
// arch/arm64/kernel/asm-offsets.c:95:   DEFINE(CLOCK_MONOTONIC,	CLOCK_MONOTONIC);
	.loc 1 95 0
// 95 "arch/arm64/kernel/asm-offsets.c" 1
	
.ascii "->CLOCK_MONOTONIC 1 CLOCK_MONOTONIC"	//
// 0 "" 2
// arch/arm64/kernel/asm-offsets.c:96:   DEFINE(CLOCK_MONOTONIC_RAW,	CLOCK_MONOTONIC_RAW);
	.loc 1 96 0
// 96 "arch/arm64/kernel/asm-offsets.c" 1
	
.ascii "->CLOCK_MONOTONIC_RAW 4 CLOCK_MONOTONIC_RAW"	//
// 0 "" 2
// arch/arm64/kernel/asm-offsets.c:97:   DEFINE(CLOCK_REALTIME_RES,	offsetof(struct vdso_data, hrtimer_res));
	.loc 1 97 0
// 97 "arch/arm64/kernel/asm-offsets.c" 1
	
.ascii "->CLOCK_REALTIME_RES 100 offsetof(struct vdso_data, hrtimer_res)"	//
// 0 "" 2
// arch/arm64/kernel/asm-offsets.c:98:   DEFINE(CLOCK_REALTIME_COARSE,	CLOCK_REALTIME_COARSE);
	.loc 1 98 0
// 98 "arch/arm64/kernel/asm-offsets.c" 1
	
.ascii "->CLOCK_REALTIME_COARSE 5 CLOCK_REALTIME_COARSE"	//
// 0 "" 2
// arch/arm64/kernel/asm-offsets.c:99:   DEFINE(CLOCK_MONOTONIC_COARSE,CLOCK_MONOTONIC_COARSE);
	.loc 1 99 0
// 99 "arch/arm64/kernel/asm-offsets.c" 1
	
.ascii "->CLOCK_MONOTONIC_COARSE 6 CLOCK_MONOTONIC_COARSE"	//
// 0 "" 2
// arch/arm64/kernel/asm-offsets.c:100:   DEFINE(CLOCK_COARSE_RES,	LOW_RES_NSEC);
	.loc 1 100 0
// 100 "arch/arm64/kernel/asm-offsets.c" 1
	
.ascii "->CLOCK_COARSE_RES 4000000 LOW_RES_NSEC"	//
// 0 "" 2
// arch/arm64/kernel/asm-offsets.c:101:   DEFINE(NSEC_PER_SEC,		NSEC_PER_SEC);
	.loc 1 101 0
// 101 "arch/arm64/kernel/asm-offsets.c" 1
	
.ascii "->NSEC_PER_SEC 1000000000 NSEC_PER_SEC"	//
// 0 "" 2
// arch/arm64/kernel/asm-offsets.c:102:   BLANK();
	.loc 1 102 0
// 102 "arch/arm64/kernel/asm-offsets.c" 1
	
.ascii "->"
// 0 "" 2
// arch/arm64/kernel/asm-offsets.c:103:   DEFINE(VDSO_CS_CYCLE_LAST,	offsetof(struct vdso_data, cs_cycle_last));
	.loc 1 103 0
// 103 "arch/arm64/kernel/asm-offsets.c" 1
	
.ascii "->VDSO_CS_CYCLE_LAST 0 offsetof(struct vdso_data, cs_cycle_last)"	//
// 0 "" 2
// arch/arm64/kernel/asm-offsets.c:104:   DEFINE(VDSO_RAW_TIME_SEC,	offsetof(struct vdso_data, raw_time_sec));
	.loc 1 104 0
// 104 "arch/arm64/kernel/asm-offsets.c" 1
	
.ascii "->VDSO_RAW_TIME_SEC 8 offsetof(struct vdso_data, raw_time_sec)"	//
// 0 "" 2
// arch/arm64/kernel/asm-offsets.c:105:   DEFINE(VDSO_RAW_TIME_NSEC,	offsetof(struct vdso_data, raw_time_nsec));
	.loc 1 105 0
// 105 "arch/arm64/kernel/asm-offsets.c" 1
	
.ascii "->VDSO_RAW_TIME_NSEC 16 offsetof(struct vdso_data, raw_time_nsec)"	//
// 0 "" 2
// arch/arm64/kernel/asm-offsets.c:106:   DEFINE(VDSO_XTIME_CLK_SEC,	offsetof(struct vdso_data, xtime_clock_sec));
	.loc 1 106 0
// 106 "arch/arm64/kernel/asm-offsets.c" 1
	
.ascii "->VDSO_XTIME_CLK_SEC 24 offsetof(struct vdso_data, xtime_clock_sec)"	//
// 0 "" 2
// arch/arm64/kernel/asm-offsets.c:107:   DEFINE(VDSO_XTIME_CLK_NSEC,	offsetof(struct vdso_data, xtime_clock_nsec));
	.loc 1 107 0
// 107 "arch/arm64/kernel/asm-offsets.c" 1
	
.ascii "->VDSO_XTIME_CLK_NSEC 32 offsetof(struct vdso_data, xtime_clock_nsec)"	//
// 0 "" 2
// arch/arm64/kernel/asm-offsets.c:108:   DEFINE(VDSO_XTIME_CRS_SEC,	offsetof(struct vdso_data, xtime_coarse_sec));
	.loc 1 108 0
// 108 "arch/arm64/kernel/asm-offsets.c" 1
	
.ascii "->VDSO_XTIME_CRS_SEC 40 offsetof(struct vdso_data, xtime_coarse_sec)"	//
// 0 "" 2
// arch/arm64/kernel/asm-offsets.c:109:   DEFINE(VDSO_XTIME_CRS_NSEC,	offsetof(struct vdso_data, xtime_coarse_nsec));
	.loc 1 109 0
// 109 "arch/arm64/kernel/asm-offsets.c" 1
	
.ascii "->VDSO_XTIME_CRS_NSEC 48 offsetof(struct vdso_data, xtime_coarse_nsec)"	//
// 0 "" 2
// arch/arm64/kernel/asm-offsets.c:110:   DEFINE(VDSO_WTM_CLK_SEC,	offsetof(struct vdso_data, wtm_clock_sec));
	.loc 1 110 0
// 110 "arch/arm64/kernel/asm-offsets.c" 1
	
.ascii "->VDSO_WTM_CLK_SEC 56 offsetof(struct vdso_data, wtm_clock_sec)"	//
// 0 "" 2
// arch/arm64/kernel/asm-offsets.c:111:   DEFINE(VDSO_WTM_CLK_NSEC,	offsetof(struct vdso_data, wtm_clock_nsec));
	.loc 1 111 0
// 111 "arch/arm64/kernel/asm-offsets.c" 1
	
.ascii "->VDSO_WTM_CLK_NSEC 64 offsetof(struct vdso_data, wtm_clock_nsec)"	//
// 0 "" 2
// arch/arm64/kernel/asm-offsets.c:112:   DEFINE(VDSO_TB_SEQ_COUNT,	offsetof(struct vdso_data, tb_seq_count));
	.loc 1 112 0
// 112 "arch/arm64/kernel/asm-offsets.c" 1
	
.ascii "->VDSO_TB_SEQ_COUNT 72 offsetof(struct vdso_data, tb_seq_count)"	//
// 0 "" 2
// arch/arm64/kernel/asm-offsets.c:113:   DEFINE(VDSO_CS_MONO_MULT,	offsetof(struct vdso_data, cs_mono_mult));
	.loc 1 113 0
// 113 "arch/arm64/kernel/asm-offsets.c" 1
	
.ascii "->VDSO_CS_MONO_MULT 76 offsetof(struct vdso_data, cs_mono_mult)"	//
// 0 "" 2
// arch/arm64/kernel/asm-offsets.c:114:   DEFINE(VDSO_CS_RAW_MULT,	offsetof(struct vdso_data, cs_raw_mult));
	.loc 1 114 0
// 114 "arch/arm64/kernel/asm-offsets.c" 1
	
.ascii "->VDSO_CS_RAW_MULT 84 offsetof(struct vdso_data, cs_raw_mult)"	//
// 0 "" 2
// arch/arm64/kernel/asm-offsets.c:115:   DEFINE(VDSO_CS_SHIFT,		offsetof(struct vdso_data, cs_shift));
	.loc 1 115 0
// 115 "arch/arm64/kernel/asm-offsets.c" 1
	
.ascii "->VDSO_CS_SHIFT 80 offsetof(struct vdso_data, cs_shift)"	//
// 0 "" 2
// arch/arm64/kernel/asm-offsets.c:116:   DEFINE(VDSO_TZ_MINWEST,	offsetof(struct vdso_data, tz_minuteswest));
	.loc 1 116 0
// 116 "arch/arm64/kernel/asm-offsets.c" 1
	
.ascii "->VDSO_TZ_MINWEST 88 offsetof(struct vdso_data, tz_minuteswest)"	//
// 0 "" 2
// arch/arm64/kernel/asm-offsets.c:117:   DEFINE(VDSO_TZ_DSTTIME,	offsetof(struct vdso_data, tz_dsttime));
	.loc 1 117 0
// 117 "arch/arm64/kernel/asm-offsets.c" 1
	
.ascii "->VDSO_TZ_DSTTIME 92 offsetof(struct vdso_data, tz_dsttime)"	//
// 0 "" 2
// arch/arm64/kernel/asm-offsets.c:118:   DEFINE(VDSO_USE_SYSCALL,	offsetof(struct vdso_data, use_syscall));
	.loc 1 118 0
// 118 "arch/arm64/kernel/asm-offsets.c" 1
	
.ascii "->VDSO_USE_SYSCALL 96 offsetof(struct vdso_data, use_syscall)"	//
// 0 "" 2
// arch/arm64/kernel/asm-offsets.c:119:   BLANK();
	.loc 1 119 0
// 119 "arch/arm64/kernel/asm-offsets.c" 1
	
.ascii "->"
// 0 "" 2
// arch/arm64/kernel/asm-offsets.c:120:   DEFINE(TVAL_TV_SEC,		offsetof(struct timeval, tv_sec));
	.loc 1 120 0
// 120 "arch/arm64/kernel/asm-offsets.c" 1
	
.ascii "->TVAL_TV_SEC 0 offsetof(struct timeval, tv_sec)"	//
// 0 "" 2
// arch/arm64/kernel/asm-offsets.c:121:   DEFINE(TVAL_TV_USEC,		offsetof(struct timeval, tv_usec));
	.loc 1 121 0
// 121 "arch/arm64/kernel/asm-offsets.c" 1
	
.ascii "->TVAL_TV_USEC 8 offsetof(struct timeval, tv_usec)"	//
// 0 "" 2
// arch/arm64/kernel/asm-offsets.c:122:   DEFINE(TSPEC_TV_SEC,		offsetof(struct timespec, tv_sec));
	.loc 1 122 0
// 122 "arch/arm64/kernel/asm-offsets.c" 1
	
.ascii "->TSPEC_TV_SEC 0 offsetof(struct timespec, tv_sec)"	//
// 0 "" 2
// arch/arm64/kernel/asm-offsets.c:123:   DEFINE(TSPEC_TV_NSEC,		offsetof(struct timespec, tv_nsec));
	.loc 1 123 0
// 123 "arch/arm64/kernel/asm-offsets.c" 1
	
.ascii "->TSPEC_TV_NSEC 8 offsetof(struct timespec, tv_nsec)"	//
// 0 "" 2
// arch/arm64/kernel/asm-offsets.c:124:   BLANK();
	.loc 1 124 0
// 124 "arch/arm64/kernel/asm-offsets.c" 1
	
.ascii "->"
// 0 "" 2
// arch/arm64/kernel/asm-offsets.c:125:   DEFINE(TZ_MINWEST,		offsetof(struct timezone, tz_minuteswest));
	.loc 1 125 0
// 125 "arch/arm64/kernel/asm-offsets.c" 1
	
.ascii "->TZ_MINWEST 0 offsetof(struct timezone, tz_minuteswest)"	//
// 0 "" 2
// arch/arm64/kernel/asm-offsets.c:126:   DEFINE(TZ_DSTTIME,		offsetof(struct timezone, tz_dsttime));
	.loc 1 126 0
// 126 "arch/arm64/kernel/asm-offsets.c" 1
	
.ascii "->TZ_DSTTIME 4 offsetof(struct timezone, tz_dsttime)"	//
// 0 "" 2
// arch/arm64/kernel/asm-offsets.c:127:   BLANK();
	.loc 1 127 0
// 127 "arch/arm64/kernel/asm-offsets.c" 1
	
.ascii "->"
// 0 "" 2
// arch/arm64/kernel/asm-offsets.c:128:   DEFINE(CPU_BOOT_STACK,	offsetof(struct secondary_data, stack));
	.loc 1 128 0
// 128 "arch/arm64/kernel/asm-offsets.c" 1
	
.ascii "->CPU_BOOT_STACK 0 offsetof(struct secondary_data, stack)"	//
// 0 "" 2
// arch/arm64/kernel/asm-offsets.c:129:   DEFINE(CPU_BOOT_TASK,		offsetof(struct secondary_data, task));
	.loc 1 129 0
// 129 "arch/arm64/kernel/asm-offsets.c" 1
	
.ascii "->CPU_BOOT_TASK 8 offsetof(struct secondary_data, task)"	//
// 0 "" 2
// arch/arm64/kernel/asm-offsets.c:130:   BLANK();
	.loc 1 130 0
// 130 "arch/arm64/kernel/asm-offsets.c" 1
	
.ascii "->"
// 0 "" 2
// arch/arm64/kernel/asm-offsets.c:142:   DEFINE(CPU_SUSPEND_SZ,	sizeof(struct cpu_suspend_ctx));
	.loc 1 142 0
// 142 "arch/arm64/kernel/asm-offsets.c" 1
	
.ascii "->CPU_SUSPEND_SZ 112 sizeof(struct cpu_suspend_ctx)"	//
// 0 "" 2
// arch/arm64/kernel/asm-offsets.c:143:   DEFINE(CPU_CTX_SP,		offsetof(struct cpu_suspend_ctx, sp));
	.loc 1 143 0
// 143 "arch/arm64/kernel/asm-offsets.c" 1
	
.ascii "->CPU_CTX_SP 96 offsetof(struct cpu_suspend_ctx, sp)"	//
// 0 "" 2
// arch/arm64/kernel/asm-offsets.c:144:   DEFINE(MPIDR_HASH_MASK,	offsetof(struct mpidr_hash, mask));
	.loc 1 144 0
// 144 "arch/arm64/kernel/asm-offsets.c" 1
	
.ascii "->MPIDR_HASH_MASK 0 offsetof(struct mpidr_hash, mask)"	//
// 0 "" 2
// arch/arm64/kernel/asm-offsets.c:145:   DEFINE(MPIDR_HASH_SHIFTS,	offsetof(struct mpidr_hash, shift_aff));
	.loc 1 145 0
// 145 "arch/arm64/kernel/asm-offsets.c" 1
	
.ascii "->MPIDR_HASH_SHIFTS 8 offsetof(struct mpidr_hash, shift_aff)"	//
// 0 "" 2
// arch/arm64/kernel/asm-offsets.c:146:   DEFINE(SLEEP_STACK_DATA_SYSTEM_REGS,	offsetof(struct sleep_stack_data, system_regs));
	.loc 1 146 0
// 146 "arch/arm64/kernel/asm-offsets.c" 1
	
.ascii "->SLEEP_STACK_DATA_SYSTEM_REGS 0 offsetof(struct sleep_stack_data, system_regs)"	//
// 0 "" 2
// arch/arm64/kernel/asm-offsets.c:147:   DEFINE(SLEEP_STACK_DATA_CALLEE_REGS,	offsetof(struct sleep_stack_data, callee_saved_regs));
	.loc 1 147 0
// 147 "arch/arm64/kernel/asm-offsets.c" 1
	
.ascii "->SLEEP_STACK_DATA_CALLEE_REGS 112 offsetof(struct sleep_stack_data, callee_saved_regs)"	//
// 0 "" 2
// arch/arm64/kernel/asm-offsets.c:149:   DEFINE(ARM_SMCCC_RES_X0_OFFS,		offsetof(struct arm_smccc_res, a0));
	.loc 1 149 0
// 149 "arch/arm64/kernel/asm-offsets.c" 1
	
.ascii "->ARM_SMCCC_RES_X0_OFFS 0 offsetof(struct arm_smccc_res, a0)"	//
// 0 "" 2
// arch/arm64/kernel/asm-offsets.c:150:   DEFINE(ARM_SMCCC_RES_X2_OFFS,		offsetof(struct arm_smccc_res, a2));
	.loc 1 150 0
// 150 "arch/arm64/kernel/asm-offsets.c" 1
	
.ascii "->ARM_SMCCC_RES_X2_OFFS 16 offsetof(struct arm_smccc_res, a2)"	//
// 0 "" 2
// arch/arm64/kernel/asm-offsets.c:151:   DEFINE(ARM_SMCCC_QUIRK_ID_OFFS,	offsetof(struct arm_smccc_quirk, id));
	.loc 1 151 0
// 151 "arch/arm64/kernel/asm-offsets.c" 1
	
.ascii "->ARM_SMCCC_QUIRK_ID_OFFS 0 offsetof(struct arm_smccc_quirk, id)"	//
// 0 "" 2
// arch/arm64/kernel/asm-offsets.c:152:   DEFINE(ARM_SMCCC_QUIRK_STATE_OFFS,	offsetof(struct arm_smccc_quirk, state));
	.loc 1 152 0
// 152 "arch/arm64/kernel/asm-offsets.c" 1
	
.ascii "->ARM_SMCCC_QUIRK_STATE_OFFS 8 offsetof(struct arm_smccc_quirk, state)"	//
// 0 "" 2
// arch/arm64/kernel/asm-offsets.c:153:   BLANK();
	.loc 1 153 0
// 153 "arch/arm64/kernel/asm-offsets.c" 1
	
.ascii "->"
// 0 "" 2
// arch/arm64/kernel/asm-offsets.c:154:   DEFINE(HIBERN_PBE_ORIG,	offsetof(struct pbe, orig_address));
	.loc 1 154 0
// 154 "arch/arm64/kernel/asm-offsets.c" 1
	
.ascii "->HIBERN_PBE_ORIG 8 offsetof(struct pbe, orig_address)"	//
// 0 "" 2
// arch/arm64/kernel/asm-offsets.c:155:   DEFINE(HIBERN_PBE_ADDR,	offsetof(struct pbe, address));
	.loc 1 155 0
// 155 "arch/arm64/kernel/asm-offsets.c" 1
	
.ascii "->HIBERN_PBE_ADDR 0 offsetof(struct pbe, address)"	//
// 0 "" 2
// arch/arm64/kernel/asm-offsets.c:156:   DEFINE(HIBERN_PBE_NEXT,	offsetof(struct pbe, next));
	.loc 1 156 0
// 156 "arch/arm64/kernel/asm-offsets.c" 1
	
.ascii "->HIBERN_PBE_NEXT 16 offsetof(struct pbe, next)"	//
// 0 "" 2
// arch/arm64/kernel/asm-offsets.c:157:   DEFINE(ARM64_FTR_SYSVAL,	offsetof(struct arm64_ftr_reg, sys_val));
	.loc 1 157 0
// 157 "arch/arm64/kernel/asm-offsets.c" 1
	
.ascii "->ARM64_FTR_SYSVAL 16 offsetof(struct arm64_ftr_reg, sys_val)"	//
// 0 "" 2
// arch/arm64/kernel/asm-offsets.c:158:   BLANK();
	.loc 1 158 0
// 158 "arch/arm64/kernel/asm-offsets.c" 1
	
.ascii "->"
// 0 "" 2
// arch/arm64/kernel/asm-offsets.c:163: }
	.loc 1 163 0
#NO_APP
	mov	w0, 0	//,
	ldp	x29, x30, [sp], 16	//,,,
	.cfi_restore 30
	.cfi_restore 29
	.cfi_def_cfa 31, 0
	ret
	.cfi_endproc
.LFE2952:
	.size	main, .-main
	.text
.Letext0:
	.file 2 "./include/uapi/asm-generic/int-ll64.h"
	.file 3 "./include/asm-generic/int-ll64.h"
	.file 4 "./include/uapi/asm-generic/posix_types.h"
	.file 5 "./include/linux/types.h"
	.file 6 "./include/linux/capability.h"
	.file 7 "./include/linux/init.h"
	.file 8 "./arch/arm64/include/asm/cachetype.h"
	.file 9 "./include/linux/printk.h"
	.file 10 "./include/linux/jump_label.h"
	.file 11 "./arch/arm64/include/asm/jump_label.h"
	.file 12 "./arch/arm64/include/asm/insn.h"
	.file 13 "./include/linux/fs.h"
	.file 14 "./include/linux/notifier.h"
	.file 15 "./include/linux/kernel.h"
	.file 16 "./include/linux/restart_block.h"
	.file 17 "./include/uapi/linux/time.h"
	.file 18 "./arch/arm64/include/asm/compat.h"
	.file 19 "./arch/arm64/include/asm/thread_info.h"
	.file 20 "./include/linux/sched.h"
	.file 21 "./arch/arm64/include/asm/hwcap.h"
	.file 22 "./arch/arm64/include/uapi/asm/ptrace.h"
	.file 23 "./arch/arm64/include/asm/ptrace.h"
	.file 24 "./arch/arm64/include/asm/spinlock_types.h"
	.file 25 "./include/linux/lockdep.h"
	.file 26 "./include/linux/spinlock_types.h"
	.file 27 "./include/linux/rwlock_types.h"
	.file 28 "./arch/arm64/include/asm/alternative.h"
	.file 29 "./arch/arm64/include/asm/cpufeature.h"
	.file 30 "./arch/arm64/include/asm/fpsimd.h"
	.file 31 "./include/asm-generic/sections.h"
	.file 32 "./arch/arm64/include/asm/stack_pointer.h"
	.file 33 "./arch/arm64/include/asm/sections.h"
	.file 34 "./arch/arm64/include/asm/virt.h"
	.file 35 "./arch/arm64/include/asm/hw_breakpoint.h"
	.file 36 "./arch/arm64/include/asm/processor.h"
	.file 37 "./include/linux/perf_event.h"
	.file 38 "./include/asm-generic/atomic-long.h"
	.file 39 "./include/linux/seqlock.h"
	.file 40 "./include/linux/time64.h"
	.file 41 "./include/linux/time.h"
	.file 42 "./include/clocksource/arm_arch_timer.h"
	.file 43 "./arch/arm64/include/asm/arch_timer.h"
	.file 44 "./include/linux/timex.h"
	.file 45 "./include/linux/jiffies.h"
	.file 46 "./include/linux/plist.h"
	.file 47 "./include/linux/cpumask.h"
	.file 48 "./include/linux/wait.h"
	.file 49 "./include/linux/completion.h"
	.file 50 "./include/linux/ktime.h"
	.file 51 "./include/linux/timekeeping.h"
	.file 52 "./include/linux/rcupdate.h"
	.file 53 "./include/linux/rcutree.h"
	.file 54 "./include/linux/rbtree.h"
	.file 55 "./include/linux/nodemask.h"
	.file 56 "./include/linux/osq_lock.h"
	.file 57 "./include/linux/rwsem.h"
	.file 58 "./include/linux/mm_types.h"
	.file 59 "./include/linux/uprobes.h"
	.file 60 "./include/linux/timer.h"
	.file 61 "./include/linux/highuid.h"
	.file 62 "./include/linux/user_namespace.h"
	.file 63 "./include/linux/uidgid.h"
	.file 64 "./include/linux/sysctl.h"
	.file 65 "./include/linux/workqueue.h"
	.file 66 "./arch/arm64/include/asm/pgtable-types.h"
	.file 67 "./arch/arm64/include/asm/page.h"
	.file 68 "./arch/arm64/include/asm/memory.h"
	.file 69 "./include/linux/llist.h"
	.file 70 "./include/linux/smp.h"
	.file 71 "./include/asm-generic/percpu.h"
	.file 72 "./arch/arm64/include/asm/smp.h"
	.file 73 "./include/linux/percpu.h"
	.file 74 "./arch/arm64/include/asm/mmu.h"
	.file 75 "./include/linux/memremap.h"
	.file 76 "./include/linux/memcontrol.h"
	.file 77 "./include/linux/mm.h"
	.file 78 "./include/linux/mmu_notifier.h"
	.file 79 "./include/asm-generic/cputime_jiffies.h"
	.file 80 "./include/linux/sem.h"
	.file 81 "./include/linux/shm.h"
	.file 82 "./include/uapi/asm-generic/signal.h"
	.file 83 "./include/uapi/asm-generic/signal-defs.h"
	.file 84 "./include/uapi/asm-generic/siginfo.h"
	.file 85 "./include/linux/signal.h"
	.file 86 "./include/linux/pid.h"
	.file 87 "./include/linux/pid_namespace.h"
	.file 88 "./include/linux/mmzone.h"
	.file 89 "./include/linux/mutex.h"
	.file 90 "./include/linux/srcu.h"
	.file 91 "./include/linux/memory_hotplug.h"
	.file 92 "./arch/arm64/include/asm/topology.h"
	.file 93 "./include/linux/seccomp.h"
	.file 94 "./include/linux/rtmutex.h"
	.file 95 "./include/uapi/linux/resource.h"
	.file 96 "./include/linux/timerqueue.h"
	.file 97 "./include/linux/hrtimer.h"
	.file 98 "./include/linux/task_io_accounting.h"
	.file 99 "./include/linux/assoc_array.h"
	.file 100 "./include/linux/key.h"
	.file 101 "./include/linux/cred.h"
	.file 102 "./include/linux/gfp.h"
	.file 103 "./include/uapi/linux/taskstats.h"
	.file 104 "./include/linux/nsproxy.h"
	.file 105 "./include/linux/bio.h"
	.file 106 "./include/linux/swap.h"
	.file 107 "./include/linux/backing-dev-defs.h"
	.file 108 "./include/linux/iocontext.h"
	.file 109 "./include/linux/cgroup-defs.h"
	.file 110 "./include/linux/compat.h"
	.file 111 "./include/linux/debug_locks.h"
	.file 112 "./include/linux/percpu-refcount.h"
	.file 113 "./include/linux/shrinker.h"
	.file 114 "./include/linux/page_ext.h"
	.file 115 "./include/linux/tracepoint-defs.h"
	.file 116 "./include/linux/page_ref.h"
	.file 117 "./include/linux/ioport.h"
	.file 118 "./arch/arm64/include/asm/pgtable.h"
	.file 119 "./include/linux/device.h"
	.file 120 "./include/linux/kobject.h"
	.file 121 "./include/linux/huge_mm.h"
	.file 122 "./include/linux/vmstat.h"
	.file 123 "./include/linux/idr.h"
	.file 124 "./include/linux/kernfs.h"
	.file 125 "./include/linux/seq_file.h"
	.file 126 "./include/linux/kobject_ns.h"
	.file 127 "./include/linux/stat.h"
	.file 128 "./include/linux/sysfs.h"
	.file 129 "./include/linux/kref.h"
	.file 130 "./include/linux/klist.h"
	.file 131 "./include/linux/list_bl.h"
	.file 132 "./include/linux/lockref.h"
	.file 133 "./include/linux/dcache.h"
	.file 134 "./include/linux/path.h"
	.file 135 "./include/linux/list_lru.h"
	.file 136 "./include/linux/radix-tree.h"
	.file 137 "./include/uapi/linux/fiemap.h"
	.file 138 "./include/linux/migrate_mode.h"
	.file 139 "./include/linux/rcu_sync.h"
	.file 140 "./include/linux/percpu-rwsem.h"
	.file 141 "./include/linux/bvec.h"
	.file 142 "./include/linux/blk_types.h"
	.file 143 "./include/linux/delayed_call.h"
	.file 144 "./include/asm-generic/ioctl.h"
	.file 145 "./include/uapi/linux/fs.h"
	.file 146 "./include/linux/percpu_counter.h"
	.file 147 "./include/linux/quota.h"
	.file 148 "./include/linux/projid.h"
	.file 149 "./include/linux/writeback.h"
	.file 150 "./include/linux/uio.h"
	.file 151 "./include/linux/nfs_fs_i.h"
	.file 152 "./include/linux/pinctrl/devinfo.h"
	.file 153 "./include/linux/pm.h"
	.file 154 "./include/linux/pm_wakeup.h"
	.file 155 "./include/linux/ratelimit.h"
	.file 156 "./arch/arm64/include/asm/device.h"
	.file 157 "./include/linux/dma-mapping.h"
	.file 158 "./arch/arm64/include/asm/dma-iommu.h"
	.file 159 "./include/linux/mod_devicetable.h"
	.file 160 "./include/linux/of.h"
	.file 161 "./include/linux/fwnode.h"
	.file 162 "./include/linux/dma-direction.h"
	.file 163 "./include/linux/vmalloc.h"
	.file 164 "./include/linux/scatterlist.h"
	.file 165 "./arch/arm64/include/../../arm/include/asm/xen/hypervisor.h"
	.file 166 "./arch/arm64/include/asm/dma-mapping.h"
	.file 167 "./arch/arm64/include/asm/irq.h"
	.file 168 "./arch/arm64/include/asm/hardirq.h"
	.file 169 "./include/linux/irq_cpustat.h"
	.file 170 "./include/linux/msi.h"
	.file 171 "./include/linux/slab.h"
	.file 172 "./include/linux/swait.h"
	.file 173 "./include/linux/psci.h"
	.file 174 "./arch/arm64/include/uapi/asm/kvm.h"
	.file 175 "./include/uapi/linux/kvm.h"
	.file 176 "./include/linux/kvm_types.h"
	.file 177 "./include/linux/kvm_host.h"
	.file 178 "./arch/arm64/include/asm/kvm_asm.h"
	.file 179 "./arch/arm64/include/asm/kvm_mmio.h"
	.file 180 "./include/kvm/iodev.h"
	.file 181 "./include/kvm/arm_vgic.h"
	.file 182 "./include/linux/uuid.h"
	.file 183 "./include/kvm/arm_arch_timer.h"
	.file 184 "./include/uapi/linux/perf_event.h"
	.file 185 "./include/asm-generic/local.h"
	.file 186 "./include/asm-generic/local64.h"
	.file 187 "./include/linux/cgroup.h"
	.file 188 "./include/linux/ns_common.h"
	.file 189 "./include/uapi/linux/uio.h"
	.file 190 "./arch/arm64/include/asm/ftrace.h"
	.file 191 "./include/linux/ftrace.h"
	.file 192 "./include/linux/node.h"
	.file 193 "./include/linux/cpu.h"
	.file 194 "./include/linux/irq_work.h"
	.file 195 "./include/linux/perf_regs.h"
	.file 196 "./include/linux/bpf-cgroup.h"
	.file 197 "./include/linux/kthread.h"
	.file 198 "./include/linux/psi_types.h"
	.file 199 "./include/linux/cgroup_subsys.h"
	.file 200 "./include/kvm/arm_pmu.h"
	.file 201 "./arch/arm64/include/asm/kvm_host.h"
	.file 202 "./include/linux/page_counter.h"
	.file 203 "./include/linux/vmpressure.h"
	.file 204 "./include/linux/flex_proportions.h"
	.file 205 "./include/linux/mempool.h"
	.file 206 "./include/linux/freezer.h"
	.file 207 "./include/linux/suspend.h"
	.file 208 "./arch/arm64/include/asm/smp_plat.h"
	.file 209 "./arch/arm64/include/asm/suspend.h"
	.section	.note.GNU-stack,"",@progbits
